; Function Attrs: mustprogress nofree norecurse nosync nounwind willreturn memory(read, inaccessiblemem: none) uwtable
define noundef i32 @_ZNK5ezSAT5boundEi(ptr noundef nonnull readonly align 8 captures(none) dereferenceable(284) %0, i32 noundef %1) local_unnamed_addr #11 align 2 {
  %3 = icmp sgt i32 %1, 0
  br i1 %3, label %4, label %19

4:                                                ; preds = %2
  %5 = getelementptr inbounds nuw i8, ptr %0, i64 176
  %6 = getelementptr inbounds nuw i8, ptr %0, i64 184
  %7 = load ptr, ptr %6, align 8, !tbaa !90
  %8 = load ptr, ptr %5, align 8, !tbaa !69
  %9 = ptrtoint ptr %7 to i64
  %10 = ptrtoint ptr %8 to i64
  %11 = sub i64 %9, %10
  %12 = lshr exact i64 %11, 2
  %13 = trunc i64 %12 to i32
  %.not = icmp sgt i32 %1, %13
  br i1 %.not, label %.thread, label %14

14:                                               ; preds = %4
  %15 = zext nneg i32 %1 to i64
  %16 = getelementptr i32, ptr %8, i64 %15
  %17 = getelementptr i8, ptr %16, i64 -4
  %18 = load i32, ptr %17, align 4, !tbaa !78
  br label %.thread

19:                                               ; preds = %2
  %20 = icmp slt i32 %1, 0
  br i1 %20, label %21, label %.thread

21:                                               ; preds = %19
  %22 = sub nsw i32 0, %1
  %23 = getelementptr inbounds nuw i8, ptr %0, i64 200
  %24 = getelementptr inbounds nuw i8, ptr %0, i64 208
  %25 = load ptr, ptr %24, align 8, !tbaa !90
  %26 = load ptr, ptr %23, align 8, !tbaa !69
  %27 = ptrtoint ptr %25 to i64
  %28 = ptrtoint ptr %26 to i64
  %29 = sub i64 %27, %28
  %30 = lshr exact i64 %29, 2
  %31 = trunc i64 %30 to i32
  %.not9 = icmp sgt i32 %22, %31
  br i1 %.not9, label %.thread, label %32

32:                                               ; preds = %21
  %33 = xor i32 %1, -1
  %34 = zext nneg i32 %33 to i64
  %35 = getelementptr inbounds nuw i32, ptr %26, i64 %34
  %36 = load i32, ptr %35, align 4, !tbaa !78
  br label %.thread

.thread:                                          ; preds = %4, %19, %21, %32, %14
  %.0 = phi i32 [ %18, %14 ], [ %36, %32 ], [ 0, %21 ], [ 0, %19 ], [ 0, %4 ]
  ret i32 %.0
}